target datalayout = "e-m:e-p270:32:32-p271:32:32-p272:64:64-i64:64-i128:128-f80:128-n8:16:32:64-S128"
target triple = "x86_64-pc-linux-gnu"

%struct.asn1_string_st = type { i32, i32, ptr, i64 }

@.str = private unnamed_addr constant [123 x i8] c"generated/home/dtcxzyw/WorkSpace/Projects/compilers/llvm-opt-benchmark/bench/libquic/libquic/boringssl/crypto/asn1/a_int.c\00", align 1

; Function Attrs: nounwind uwtable
define hidden ptr @ASN1_INTEGER_to_BN(ptr noundef %0, ptr noundef %1) #0 {
  %3 = alloca ptr, align 8
  %4 = alloca ptr, align 8
  %5 = alloca ptr, align 8
  store ptr %0, ptr %3, align 8, !tbaa !6
  store ptr %1, ptr %4, align 8, !tbaa !35
  call void @llvm.lifetime.start.p0(i64 8, ptr %5) #8
  %6 = load ptr, ptr %3, align 8, !tbaa !6
  %7 = getelementptr inbounds nuw %struct.asn1_string_st, ptr %6, i32 0, i32 2
  %8 = load ptr, ptr %7, align 8, !tbaa !21
  %9 = load ptr, ptr %3, align 8, !tbaa !6
  %10 = getelementptr inbounds nuw %struct.asn1_string_st, ptr %9, i32 0, i32 0
  %11 = load i32, ptr %10, align 8, !tbaa !20
  %12 = sext i32 %11 to i64
  %13 = load ptr, ptr %4, align 8, !tbaa !35
  %14 = call ptr @BN_bin2bn(ptr noundef %8, i64 noundef %12, ptr noundef %13)
  store ptr %14, ptr %5, align 8, !tbaa !35
  %15 = icmp eq ptr %14, null
  br i1 %15, label %16, label %17

16:                                               ; preds = %2
  call void @ERR_put_error(i32 noundef 12, i32 noundef 0, i32 noundef 105, ptr noundef @.str, i32 noundef 456)
  br label %25

17:                                               ; preds = %2
  %18 = load ptr, ptr %3, align 8, !tbaa !6
  %19 = getelementptr inbounds nuw %struct.asn1_string_st, ptr %18, i32 0, i32 1
  %20 = load i32, ptr %19, align 4, !tbaa !11
  %21 = icmp eq i32 %20, 258
  br i1 %21, label %22, label %24

22:                                               ; preds = %17
  %23 = load ptr, ptr %5, align 8, !tbaa !35
  call void @BN_set_negative(ptr noundef %23, i32 noundef 1)
  br label %24

24:                                               ; preds = %22, %17
  br label %25

25:                                               ; preds = %24, %16
  %26 = load ptr, ptr %5, align 8, !tbaa !35
  call void @llvm.lifetime.end.p0(i64 8, ptr %5) #8
  ret ptr %26
}