; Function Attrs: nounwind uwtable
define hidden ptr @ASN1_INTEGER_to_BN(ptr noundef readonly captures(none) %0, ptr noundef %1) local_unnamed_addr #0 {
  %3 = getelementptr inbounds nuw i8, ptr %0, i64 8
  %4 = load ptr, ptr %3, align 8, !tbaa !15
  %5 = load i32, ptr %0, align 8, !tbaa !14
  %6 = sext i32 %5 to i64
  %7 = tail call ptr @BN_bin2bn(ptr noundef %4, i64 noundef %6, ptr noundef %1) #10
  %8 = icmp eq ptr %7, null
  br i1 %8, label %9, label %10

9:                                                ; preds = %2
  tail call void @ERR_put_error(i32 noundef 12, i32 noundef 0, i32 noundef 105, ptr noundef nonnull @.str, i32 noundef 456) #10
  br label %15

10:                                               ; preds = %2
  %11 = getelementptr inbounds nuw i8, ptr %0, i64 4
  %12 = load i32, ptr %11, align 4, !tbaa !6
  %13 = icmp eq i32 %12, 258
  br i1 %13, label %14, label %15

14:                                               ; preds = %10
  tail call void @BN_set_negative(ptr noundef nonnull %7, i32 noundef 1) #10
  br label %15

15:                                               ; preds = %10, %14, %9
  ret ptr %7
}